target datalayout = "e-m:e-p270:32:32-p271:32:32-p272:64:64-i64:64-i128:128-f80:128-n8:16:32:64-S128"
target triple = "x86_64-pc-linux-gnu"

@.str.1 = private unnamed_addr constant [2 x i8] c"#\00", align 1
@.str.2 = private unnamed_addr constant [2 x i8] c" \00", align 1
@.str.3 = private unnamed_addr constant [3 x i8] c"::\00", align 1

; Function Attrs: nounwind uwtable
define i32 @phpdbg_is_class_method(ptr noundef %0, i64 noundef %1, ptr noundef %2, ptr noundef %3) #0 {
  %5 = alloca i32, align 4
  %6 = alloca ptr, align 8
  %7 = alloca i64, align 8
  %8 = alloca ptr, align 8
  %9 = alloca ptr, align 8
  %10 = alloca ptr, align 8
  store ptr %0, ptr %6, align 8
  store i64 %1, ptr %7, align 8
  store ptr %2, ptr %8, align 8
  store ptr %3, ptr %9, align 8
  store ptr null, ptr %10, align 8
  %11 = load ptr, ptr %6, align 8
  %12 = call ptr @strstr(ptr noundef %11, ptr noundef @.str.1) #12
  %13 = icmp ne ptr %12, null
  br i1 %13, label %14, label %15

14:                                               ; preds = %4
  store i32 0, ptr %5, align 4
  br label %86

15:                                               ; preds = %4
  %16 = load ptr, ptr %6, align 8
  %17 = call ptr @strstr(ptr noundef %16, ptr noundef @.str.2) #12
  %18 = icmp ne ptr %17, null
  br i1 %18, label %19, label %20

19:                                               ; preds = %15
  store i32 0, ptr %5, align 4
  br label %86

20:                                               ; preds = %15
  %21 = load ptr, ptr %6, align 8
  %22 = call ptr @strstr(ptr noundef %21, ptr noundef @.str.3) #12
  store ptr %22, ptr %10, align 8
  %23 = load ptr, ptr %10, align 8
  %24 = icmp ne ptr %23, null
  br i1 %24, label %25, label %37

25:                                               ; preds = %20
  %26 = load ptr, ptr %10, align 8
  %27 = load ptr, ptr %6, align 8
  %28 = icmp eq ptr %26, %27
  br i1 %28, label %37, label %29

29:                                               ; preds = %25
  %30 = load ptr, ptr %10, align 8
  %31 = getelementptr inbounds i8, ptr %30, i64 2
  %32 = load ptr, ptr %6, align 8
  %33 = load i64, ptr %7, align 8
  %34 = getelementptr inbounds i8, ptr %32, i64 %33
  %35 = getelementptr inbounds i8, ptr %34, i64 -1
  %36 = icmp eq ptr %31, %35
  br i1 %36, label %37, label %38

37:                                               ; preds = %29, %25, %20
  store i32 0, ptr %5, align 4
  br label %86

38:                                               ; preds = %29
  %39 = load ptr, ptr %8, align 8
  %40 = icmp ne ptr %39, null
  br i1 %40, label %41, label %69

41:                                               ; preds = %38
  %42 = load ptr, ptr %6, align 8
  %43 = getelementptr inbounds i8, ptr %42, i64 0
  %44 = load i8, ptr %43, align 1
  %45 = sext i8 %44 to i32
  %46 = icmp eq i32 %45, 92
  br i1 %46, label %47, label %52

47:                                               ; preds = %41
  %48 = load ptr, ptr %6, align 8
  %49 = getelementptr inbounds i8, ptr %48, i32 1
  store ptr %49, ptr %6, align 8
  %50 = load i64, ptr %7, align 8
  %51 = add i64 %50, -1
  store i64 %51, ptr %7, align 8
  br label %52

52:                                               ; preds = %47, %41
  %53 = load ptr, ptr %6, align 8
  %54 = load ptr, ptr %10, align 8
  %55 = load ptr, ptr %6, align 8
  %56 = ptrtoint ptr %54 to i64
  %57 = ptrtoint ptr %55 to i64
  %58 = sub i64 %56, %57
  %59 = call noalias ptr @_estrndup(ptr noundef %53, i64 noundef %58)
  %60 = load ptr, ptr %8, align 8
  store ptr %59, ptr %60, align 8
  %61 = load ptr, ptr %8, align 8
  %62 = load ptr, ptr %61, align 8
  %63 = load ptr, ptr %10, align 8
  %64 = load ptr, ptr %6, align 8
  %65 = ptrtoint ptr %63 to i64
  %66 = ptrtoint ptr %64 to i64
  %67 = sub i64 %65, %66
  %68 = getelementptr inbounds i8, ptr %62, i64 %67
  store i8 0, ptr %68, align 1
  br label %69

69:                                               ; preds = %52, %38
  %70 = load ptr, ptr %9, align 8
  %71 = icmp ne ptr %70, null
  br i1 %71, label %72, label %85

72:                                               ; preds = %69
  %73 = load ptr, ptr %10, align 8
  %74 = getelementptr inbounds i8, ptr %73, i64 2
  %75 = load ptr, ptr %6, align 8
  %76 = load i64, ptr %7, align 8
  %77 = getelementptr inbounds i8, ptr %75, i64 %76
  %78 = load ptr, ptr %10, align 8
  %79 = getelementptr inbounds i8, ptr %78, i64 2
  %80 = ptrtoint ptr %77 to i64
  %81 = ptrtoint ptr %79 to i64
  %82 = sub i64 %80, %81
  %83 = call noalias ptr @_estrndup(ptr noundef %74, i64 noundef %82)
  %84 = load ptr, ptr %9, align 8
  store ptr %83, ptr %84, align 8
  br label %85

85:                                               ; preds = %72, %69
  store i32 1, ptr %5, align 4
  br label %86

86:                                               ; preds = %85, %37, %19, %14
  %87 = load i32, ptr %5, align 4
  ret i32 %87
}