; Function Attrs: nounwind uwtable
define noundef i32 @phpdbg_is_class_method(ptr noundef %0, i64 noundef %1, ptr noundef writeonly %2, ptr noundef writeonly %3) local_unnamed_addr #3 {
  %strchr = tail call ptr @strchr(ptr nonnull dereferenceable(1) %0, i32 35)
  %.not = icmp eq ptr %strchr, null
  br i1 %.not, label %5, label %31

5:                                                ; preds = %4
  %strchr34 = tail call ptr @strchr(ptr nonnull dereferenceable(1) %0, i32 32)
  %.not35 = icmp eq ptr %strchr34, null
  br i1 %.not35, label %6, label %31

6:                                                ; preds = %5
  %7 = tail call ptr @strstr(ptr noundef nonnull dereferenceable(1) %0, ptr noundef nonnull dereferenceable(1) @.str.3) #24
  %.not36 = icmp eq ptr %7, null
  %8 = icmp eq ptr %7, %0
  %or.cond = or i1 %.not36, %8
  br i1 %or.cond, label %31, label %9

9:                                                ; preds = %6
  %10 = getelementptr inbounds i8, ptr %7, i64 2
  %11 = getelementptr inbounds i8, ptr %0, i64 %1
  %12 = getelementptr inbounds i8, ptr %11, i64 -1
  %13 = icmp eq ptr %10, %12
  br i1 %13, label %31, label %14

14:                                               ; preds = %9
  %.not37 = icmp eq ptr %2, null
  br i1 %.not37, label %24, label %15

15:                                               ; preds = %14
  %16 = load i8, ptr %0, align 1
  %17 = icmp eq i8 %16, 92
  %18 = sext i1 %17 to i64
  %.027 = add i64 %18, %1
  %.026.idx = zext i1 %17 to i64
  %.026 = getelementptr inbounds i8, ptr %0, i64 %.026.idx
  %19 = ptrtoint ptr %7 to i64
  %20 = ptrtoint ptr %.026 to i64
  %21 = sub i64 %19, %20
  %22 = tail call noalias ptr @_estrndup(ptr noundef nonnull %.026, i64 noundef %21) #25
  store ptr %22, ptr %2, align 8
  %23 = getelementptr inbounds i8, ptr %22, i64 %21
  store i8 0, ptr %23, align 1
  br label %24

24:                                               ; preds = %15, %14
  %.128 = phi i64 [ %.027, %15 ], [ %1, %14 ]
  %.1 = phi ptr [ %.026, %15 ], [ %0, %14 ]
  %.not38 = icmp eq ptr %3, null
  br i1 %.not38, label %31, label %25

25:                                               ; preds = %24
  %26 = getelementptr inbounds i8, ptr %.1, i64 %.128
  %27 = ptrtoint ptr %26 to i64
  %28 = ptrtoint ptr %10 to i64
  %29 = sub i64 %27, %28
  %30 = tail call noalias ptr @_estrndup(ptr noundef nonnull %10, i64 noundef %29) #25
  store ptr %30, ptr %3, align 8
  br label %31

31:                                               ; preds = %24, %25, %6, %9, %5, %4
  %.0 = phi i32 [ 0, %4 ], [ 0, %5 ], [ 0, %9 ], [ 0, %6 ], [ 1, %25 ], [ 1, %24 ]
  ret i32 %.0
}